; Function Attrs: mustprogress uwtable
define void @_ZN7rocksdb18WriteBatchInternal23MarkCommitWithTimestampEPNS_10WriteBatchERKNS_5SliceES5_(ptr noalias nocapture writeonly sret(%"class.rocksdb::Status") align 8 %agg.result, ptr noundef %b, ptr nocapture noundef nonnull readonly align 8 dereferenceable(16) %xid, ptr nocapture noundef nonnull readonly align 8 dereferenceable(16) %commit_ts) local_unnamed_addr #2 align 2 personality ptr @__gxx_personality_v0 {
entry:
  %buf.i.i9 = alloca [5 x i8], align 1
  %buf.i.i = alloca [5 x i8], align 1
  %rep_ = getelementptr inbounds i8, ptr %b, i64 64
  tail call void @_ZNSt7__cxx1112basic_stringIcSt11char_traitsIcESaIcEE9push_backEc(ptr noundef nonnull align 8 dereferenceable(32) %rep_, i8 noundef signext 21)
  %size_.i.i = getelementptr inbounds i8, ptr %commit_ts, i64 8
  %0 = load i64, ptr %size_.i.i, align 8
  %conv.i = trunc i64 %0 to i32
  call void @llvm.lifetime.start.p0(i64 5, ptr nonnull %buf.i.i)
  %call.i.i = call noundef ptr @_ZN7rocksdb14EncodeVarint32EPcj(ptr noundef nonnull %buf.i.i, i32 noundef %conv.i)
  %sub.ptr.lhs.cast.i.i = ptrtoint ptr %call.i.i to i64
  %sub.ptr.rhs.cast.i.i = ptrtoint ptr %buf.i.i to i64
  %sub.ptr.sub.i.i = sub i64 %sub.ptr.lhs.cast.i.i, %sub.ptr.rhs.cast.i.i
  %call3.i.i = call noundef nonnull align 8 dereferenceable(32) ptr @_ZNSt7__cxx1112basic_stringIcSt11char_traitsIcESaIcEE6appendEPKcm(ptr noundef nonnull align 8 dereferenceable(32) %rep_, ptr noundef nonnull %buf.i.i, i64 noundef %sub.ptr.sub.i.i)
  call void @llvm.lifetime.end.p0(i64 5, ptr nonnull %buf.i.i)
  %1 = load ptr, ptr %commit_ts, align 8
  %2 = load i64, ptr %size_.i.i, align 8
  %call3.i = call noundef nonnull align 8 dereferenceable(32) ptr @_ZNSt7__cxx1112basic_stringIcSt11char_traitsIcESaIcEE6appendEPKcm(ptr noundef nonnull align 8 dereferenceable(32) %rep_, ptr noundef %1, i64 noundef %2)
  %size_.i.i10 = getelementptr inbounds i8, ptr %xid, i64 8
  %3 = load i64, ptr %size_.i.i10, align 8
  %conv.i11 = trunc i64 %3 to i32
  call void @llvm.lifetime.start.p0(i64 5, ptr nonnull %buf.i.i9)
  %call.i.i12 = call noundef ptr @_ZN7rocksdb14EncodeVarint32EPcj(ptr noundef nonnull %buf.i.i9, i32 noundef %conv.i11)
  %sub.ptr.lhs.cast.i.i13 = ptrtoint ptr %call.i.i12 to i64
  %sub.ptr.rhs.cast.i.i14 = ptrtoint ptr %buf.i.i9 to i64
  %sub.ptr.sub.i.i15 = sub i64 %sub.ptr.lhs.cast.i.i13, %sub.ptr.rhs.cast.i.i14
  %call3.i.i16 = call noundef nonnull align 8 dereferenceable(32) ptr @_ZNSt7__cxx1112basic_stringIcSt11char_traitsIcESaIcEE6appendEPKcm(ptr noundef nonnull align 8 dereferenceable(32) %rep_, ptr noundef nonnull %buf.i.i9, i64 noundef %sub.ptr.sub.i.i15)
  call void @llvm.lifetime.end.p0(i64 5, ptr nonnull %buf.i.i9)
  %4 = load ptr, ptr %xid, align 8
  %5 = load i64, ptr %size_.i.i10, align 8
  %call3.i17 = call noundef nonnull align 8 dereferenceable(32) ptr @_ZNSt7__cxx1112basic_stringIcSt11char_traitsIcESaIcEE6appendEPKcm(ptr noundef nonnull align 8 dereferenceable(32) %rep_, ptr noundef %4, i64 noundef %5)
  %content_flags_ = getelementptr inbounds i8, ptr %b, i64 36
  %6 = load atomic i32, ptr %content_flags_ monotonic, align 4
  %or = or i32 %6, 128
  store atomic i32 %or, ptr %content_flags_ monotonic, align 4
  %state_.i.i = getelementptr inbounds i8, ptr %agg.result, i64 8
  store ptr null, ptr %state_.i.i, align 8, !alias.scope !54
  call void @llvm.memset.p0.i64(ptr noundef nonnull align 8 dereferenceable(6) %agg.result, i8 0, i64 6, i1 false), !alias.scope !54
  ret void
}